target datalayout = "e-m:e-p270:32:32-p271:32:32-p272:64:64-i64:64-i128:128-f80:128-n8:16:32:64-S128"
target triple = "x86_64-pc-linux-gnu"

%"class.icu_77::CollationIterator::CEBuffer" = type { i32, %"class.icu_77::MaybeStackArray.0" }
%"class.icu_77::MaybeStackArray.0" = type { ptr, i32, i8, [40 x i64] }

; Function Attrs: mustprogress uwtable
define linkonce_odr void @_ZN6icu_7715MaybeStackArrayIlLi40EE12releaseArrayEv(ptr noundef nonnull align 8 dereferenceable(336) %0) #1 comdat align 2 {
  %2 = alloca ptr, align 8
  store ptr %0, ptr %2, align 8, !tbaa !25
  %3 = load ptr, ptr %2, align 8
  %4 = getelementptr inbounds nuw %"class.icu_77::MaybeStackArray.0", ptr %3, i32 0, i32 2
  %5 = load i8, ptr %4, align 4, !tbaa !36
  %6 = icmp ne i8 %5, 0
  br i1 %6, label %7, label %10

7:                                                ; preds = %1
  %8 = getelementptr inbounds nuw %"class.icu_77::MaybeStackArray.0", ptr %3, i32 0, i32 0
  %9 = load ptr, ptr %8, align 8, !tbaa !35
  call void @uprv_free_77(ptr noundef %9)
  br label %10

10:                                               ; preds = %7, %1
  ret void
}

; Function Attrs: inlinehint mustprogress uwtable
define linkonce_odr noundef ptr @_ZN6icu_7715MaybeStackArrayIlLi40EE6resizeEii(ptr noundef nonnull align 8 dereferenceable(336) %0, i32 noundef %1, i32 noundef %2) #3 comdat align 2 {
  %4 = alloca ptr, align 8
  %5 = alloca ptr, align 8
  %6 = alloca i32, align 4
  %7 = alloca i32, align 4
  %8 = alloca ptr, align 8
  store ptr %0, ptr %5, align 8, !tbaa !25
  store i32 %1, ptr %6, align 4, !tbaa !14
  store i32 %2, ptr %7, align 4, !tbaa !14
  %9 = load ptr, ptr %5, align 8
  %10 = load i32, ptr %6, align 4, !tbaa !14
  %11 = icmp sgt i32 %10, 0
  br i1 %11, label %12, label %54

12:                                               ; preds = %3
  call void @llvm.lifetime.start.p0(i64 8, ptr %8) #11
  %13 = load i32, ptr %6, align 4, !tbaa !14
  %14 = sext i32 %13 to i64
  %15 = mul i64 %14, 8
  %16 = call noalias ptr @uprv_malloc_77(i64 noundef %15) #12
  store ptr %16, ptr %8, align 8, !tbaa !33
  %17 = load ptr, ptr %8, align 8, !tbaa !33
  %18 = icmp ne ptr %17, null
  br i1 %18, label %19, label %52

19:                                               ; preds = %12
  %20 = load i32, ptr %7, align 4, !tbaa !14
  %21 = icmp sgt i32 %20, 0
  br i1 %21, label %22, label %46

22:                                               ; preds = %19
  %23 = load i32, ptr %7, align 4, !tbaa !14
  %24 = getelementptr inbounds nuw %"class.icu_77::MaybeStackArray.0", ptr %9, i32 0, i32 1
  %25 = load i32, ptr %24, align 8, !tbaa !34
  %26 = icmp sgt i32 %23, %25
  br i1 %26, label %27, label %30

27:                                               ; preds = %22
  %28 = getelementptr inbounds nuw %"class.icu_77::MaybeStackArray.0", ptr %9, i32 0, i32 1
  %29 = load i32, ptr %28, align 8, !tbaa !34
  store i32 %29, ptr %7, align 4, !tbaa !14
  br label %30

30:                                               ; preds = %27, %22
  %31 = load i32, ptr %7, align 4, !tbaa !14
  %32 = load i32, ptr %6, align 4, !tbaa !14
  %33 = icmp sgt i32 %31, %32
  br i1 %33, label %34, label %36

34:                                               ; preds = %30
  %35 = load i32, ptr %6, align 4, !tbaa !14
  store i32 %35, ptr %7, align 4, !tbaa !14
  br label %36

36:                                               ; preds = %34, %30
  br label %37

37:                                               ; preds = %36
  %38 = load ptr, ptr %8, align 8, !tbaa !33
  %39 = getelementptr inbounds nuw %"class.icu_77::MaybeStackArray.0", ptr %9, i32 0, i32 0
  %40 = load ptr, ptr %39, align 8, !tbaa !35
  %41 = load i32, ptr %7, align 4, !tbaa !14
  %42 = sext i32 %41 to i64
  %43 = mul i64 %42, 8
  call void @llvm.memcpy.p0.p0.i64(ptr align 8 %38, ptr align 8 %40, i64 %43, i1 false)
  br label %44

44:                                               ; preds = %37
  br label %45

45:                                               ; preds = %44
  br label %46

46:                                               ; preds = %45, %19
  call void @_ZN6icu_7715MaybeStackArrayIlLi40EE12releaseArrayEv(ptr noundef nonnull align 8 dereferenceable(336) %9)
  %47 = load ptr, ptr %8, align 8, !tbaa !33
  %48 = getelementptr inbounds nuw %"class.icu_77::MaybeStackArray.0", ptr %9, i32 0, i32 0
  store ptr %47, ptr %48, align 8, !tbaa !35
  %49 = load i32, ptr %6, align 4, !tbaa !14
  %50 = getelementptr inbounds nuw %"class.icu_77::MaybeStackArray.0", ptr %9, i32 0, i32 1
  store i32 %49, ptr %50, align 8, !tbaa !34
  %51 = getelementptr inbounds nuw %"class.icu_77::MaybeStackArray.0", ptr %9, i32 0, i32 2
  store i8 1, ptr %51, align 4, !tbaa !36
  br label %52

52:                                               ; preds = %46, %12
  %53 = load ptr, ptr %8, align 8, !tbaa !33
  store ptr %53, ptr %4, align 8
  call void @llvm.lifetime.end.p0(i64 8, ptr %8) #11
  br label %55

54:                                               ; preds = %3
  store ptr null, ptr %4, align 8
  br label %55

55:                                               ; preds = %54, %52
  %56 = load ptr, ptr %4, align 8
  ret ptr %56
}

; Function Attrs: inlinehint mustprogress nounwind uwtable
define internal noundef signext i8 @_ZL9U_FAILURE10UErrorCode(i32 noundef %0) #2 {
  %2 = alloca i32, align 4
  store i32 %0, ptr %2, align 4, !tbaa !15
  %3 = load i32, ptr %2, align 4, !tbaa !15
  %4 = icmp sgt i32 %3, 0
  %5 = zext i1 %4 to i8
  ret i8 %5
}

; Function Attrs: mustprogress nounwind uwtable
define linkonce_odr noundef i32 @_ZNK6icu_7715MaybeStackArrayIlLi40EE11getCapacityEv(ptr noundef nonnull align 8 dereferenceable(336) %0) #0 comdat align 2 {
  %2 = alloca ptr, align 8
  store ptr %0, ptr %2, align 8, !tbaa !25
  %3 = load ptr, ptr %2, align 8
  %4 = getelementptr inbounds nuw %"class.icu_77::MaybeStackArray.0", ptr %3, i32 0, i32 1
  %5 = load i32, ptr %4, align 8, !tbaa !34
  ret i32 %5
}

; Function Attrs: mustprogress uwtable
define noundef signext i8 @_ZN6icu_7717CollationIterator8CEBuffer20ensureAppendCapacityEiR10UErrorCode(ptr noundef nonnull align 8 dereferenceable(344) %0, i32 noundef %1, ptr noundef nonnull align 4 dereferenceable(4) %2) #1 align 2 {
  %4 = alloca i8, align 1
  %5 = alloca ptr, align 8
  %6 = alloca i32, align 4
  %7 = alloca ptr, align 8
  %8 = alloca i32, align 4
  %9 = alloca i32, align 4
  %10 = alloca ptr, align 8
  store ptr %0, ptr %5, align 8, !tbaa !23
  store i32 %1, ptr %6, align 4, !tbaa !14
  store ptr %2, ptr %7, align 8, !tbaa !22
  %11 = load ptr, ptr %5, align 8
  call void @llvm.lifetime.start.p0(i64 4, ptr %8) #11
  %12 = getelementptr inbounds nuw %"class.icu_77::CollationIterator::CEBuffer", ptr %11, i32 0, i32 1
  %13 = call noundef i32 @_ZNK6icu_7715MaybeStackArrayIlLi40EE11getCapacityEv(ptr noundef nonnull align 8 dereferenceable(336) %12)
  store i32 %13, ptr %8, align 4, !tbaa !14
  %14 = getelementptr inbounds nuw %"class.icu_77::CollationIterator::CEBuffer", ptr %11, i32 0, i32 0
  %15 = load i32, ptr %14, align 8, !tbaa !27
  %16 = load i32, ptr %6, align 4, !tbaa !14
  %17 = add nsw i32 %15, %16
  %18 = load i32, ptr %8, align 4, !tbaa !14
  %19 = icmp sle i32 %17, %18
  br i1 %19, label %20, label %21

20:                                               ; preds = %3
  store i8 1, ptr %4, align 1
  store i32 1, ptr %9, align 4
  br label %57

21:                                               ; preds = %3
  %22 = load ptr, ptr %7, align 8, !tbaa !22
  %23 = load i32, ptr %22, align 4, !tbaa !15
  %24 = call noundef signext i8 @_ZL9U_FAILURE10UErrorCode(i32 noundef %23)
  %25 = icmp ne i8 %24, 0
  br i1 %25, label %26, label %27

26:                                               ; preds = %21
  store i8 0, ptr %4, align 1
  store i32 1, ptr %9, align 4
  br label %57

27:                                               ; preds = %21
  br label %28

28:                                               ; preds = %38, %27
  %29 = load i32, ptr %8, align 4, !tbaa !14
  %30 = icmp slt i32 %29, 1000
  br i1 %30, label %31, label %34

31:                                               ; preds = %28
  %32 = load i32, ptr %8, align 4, !tbaa !14
  %33 = mul nsw i32 %32, 4
  store i32 %33, ptr %8, align 4, !tbaa !14
  br label %37

34:                                               ; preds = %28
  %35 = load i32, ptr %8, align 4, !tbaa !14
  %36 = mul nsw i32 %35, 2
  store i32 %36, ptr %8, align 4, !tbaa !14
  br label %37

37:                                               ; preds = %34, %31
  br label %38

38:                                               ; preds = %37
  %39 = load i32, ptr %8, align 4, !tbaa !14
  %40 = getelementptr inbounds nuw %"class.icu_77::CollationIterator::CEBuffer", ptr %11, i32 0, i32 0
  %41 = load i32, ptr %40, align 8, !tbaa !27
  %42 = load i32, ptr %6, align 4, !tbaa !14
  %43 = add nsw i32 %41, %42
  %44 = icmp slt i32 %39, %43
  br i1 %44, label %28, label %45, !llvm.loop !31

45:                                               ; preds = %38
  call void @llvm.lifetime.start.p0(i64 8, ptr %10) #11
  %46 = getelementptr inbounds nuw %"class.icu_77::CollationIterator::CEBuffer", ptr %11, i32 0, i32 1
  %47 = load i32, ptr %8, align 4, !tbaa !14
  %48 = getelementptr inbounds nuw %"class.icu_77::CollationIterator::CEBuffer", ptr %11, i32 0, i32 0
  %49 = load i32, ptr %48, align 8, !tbaa !27
  %50 = call noundef ptr @_ZN6icu_7715MaybeStackArrayIlLi40EE6resizeEii(ptr noundef nonnull align 8 dereferenceable(336) %46, i32 noundef %47, i32 noundef %49)
  store ptr %50, ptr %10, align 8, !tbaa !33
  %51 = load ptr, ptr %10, align 8, !tbaa !33
  %52 = icmp eq ptr %51, null
  br i1 %52, label %53, label %55

53:                                               ; preds = %45
  %54 = load ptr, ptr %7, align 8, !tbaa !22
  store i32 7, ptr %54, align 4, !tbaa !15
  store i8 0, ptr %4, align 1
  store i32 1, ptr %9, align 4
  br label %56

55:                                               ; preds = %45
  store i8 1, ptr %4, align 1
  store i32 1, ptr %9, align 4
  br label %56

56:                                               ; preds = %55, %53
  call void @llvm.lifetime.end.p0(i64 8, ptr %10) #11
  br label %57

57:                                               ; preds = %56, %26, %20
  call void @llvm.lifetime.end.p0(i64 4, ptr %8) #11
  %58 = load i8, ptr %4, align 1
  ret i8 %58
}