; Function Attrs: mustprogress uwtable
define noundef signext range(i8 0, 2) i8 @_ZN6icu_7717CollationIterator8CEBuffer20ensureAppendCapacityEiR10UErrorCode(ptr noundef nonnull align 8 captures(none) dereferenceable(344) %0, i32 noundef %1, ptr noundef nonnull align 4 captures(none) dereferenceable(4) %2) local_unnamed_addr #1 align 2 {
  %4 = getelementptr inbounds nuw i8, ptr %0, i64 8
  %5 = getelementptr inbounds nuw i8, ptr %0, i64 16
  %6 = load i32, ptr %5, align 8, !tbaa !19
  %7 = load i32, ptr %0, align 8, !tbaa !20
  %8 = add nsw i32 %7, %1
  %.not = icmp sgt i32 %8, %6
  br i1 %.not, label %9, label %33

9:                                                ; preds = %3
  %10 = load i32, ptr %2, align 4, !tbaa !13
  %11 = icmp slt i32 %10, 1
  br i1 %11, label %.preheader, label %33

.preheader:                                       ; preds = %9, %.preheader
  %.012 = phi i32 [ %.113, %.preheader ], [ %6, %9 ]
  %12 = icmp slt i32 %.012, 1000
  %.113.v = select i1 %12, i32 2, i32 1
  %.113 = shl nsw i32 %.012, %.113.v
  %13 = icmp slt i32 %.113, %8
  br i1 %13, label %.preheader, label %14, !llvm.loop !22

14:                                               ; preds = %.preheader
  %15 = icmp sgt i32 %.012, 0
  br i1 %15, label %16, label %32

16:                                               ; preds = %14
  %17 = zext nneg i32 %.113 to i64
  %18 = shl nuw nsw i64 %17, 3
  %19 = tail call noalias ptr @uprv_malloc_77(i64 noundef %18) #22
  %.not.i = icmp eq ptr %19, null
  br i1 %.not.i, label %32, label %20

20:                                               ; preds = %16
  %21 = icmp sgt i32 %7, 0
  br i1 %21, label %22, label %27

22:                                               ; preds = %20
  %23 = load i32, ptr %5, align 8, !tbaa !19
  %spec.select.i = tail call i32 @llvm.smin.i32(i32 %7, i32 %23)
  %.1.i = tail call i32 @llvm.smin.i32(i32 %spec.select.i, i32 %.113)
  %24 = load ptr, ptr %4, align 8, !tbaa !18
  %25 = sext i32 %.1.i to i64
  %26 = shl nsw i64 %25, 3
  tail call void @llvm.memcpy.p0.p0.i64(ptr nonnull align 8 %19, ptr align 8 %24, i64 %26, i1 false)
  br label %27

27:                                               ; preds = %22, %20
  %28 = getelementptr inbounds nuw i8, ptr %0, i64 20
  %29 = load i8, ptr %28, align 4, !tbaa !15
  %.not.i.i = icmp eq i8 %29, 0
  br i1 %.not.i.i, label %_ZN6icu_7715MaybeStackArrayIlLi40EE6resizeEii.exit, label %30

30:                                               ; preds = %27
  %31 = load ptr, ptr %4, align 8, !tbaa !18
  tail call void @uprv_free_77(ptr noundef %31)
  br label %_ZN6icu_7715MaybeStackArrayIlLi40EE6resizeEii.exit

_ZN6icu_7715MaybeStackArrayIlLi40EE6resizeEii.exit: ; preds = %27, %30
  store ptr %19, ptr %4, align 8, !tbaa !18
  store i32 %.113, ptr %5, align 8, !tbaa !19
  store i8 1, ptr %28, align 4, !tbaa !15
  br label %33

32:                                               ; preds = %16, %14
  store i32 7, ptr %2, align 4, !tbaa !13
  br label %33

33:                                               ; preds = %_ZN6icu_7715MaybeStackArrayIlLi40EE6resizeEii.exit, %32, %9, %3
  %.0 = phi i8 [ 1, %3 ], [ 0, %9 ], [ 0, %32 ], [ 1, %_ZN6icu_7715MaybeStackArrayIlLi40EE6resizeEii.exit ]
  ret i8 %.0
}